; Function Attrs: mustprogress uwtable
define hidden noundef nonnull align 8 dereferenceable(40) ptr @_ZN11ext_numeralpLERKS_(ptr noundef nonnull returned align 8 dereferenceable(40) %0, ptr noundef nonnull align 8 dereferenceable(40) %1) local_unnamed_addr #3 align 2 {
  %3 = load i32, ptr %0, align 8, !tbaa !3
  %.not = icmp eq i32 %3, 1
  br i1 %.not, label %4, label %25

4:                                                ; preds = %2
  %5 = load i32, ptr %1, align 8, !tbaa !3
  switch i32 %5, label %24 [
    i32 0, label %6
    i32 1, label %13
    i32 2, label %17
  ]

6:                                                ; preds = %4
  store i32 0, ptr %0, align 8, !tbaa !3
  %7 = getelementptr inbounds nuw i8, ptr %0, i64 8
  %8 = load ptr, ptr @_ZN8rational13g_mpq_managerE, align 8, !tbaa !14
  tail call void @_ZN11mpz_managerILb1EE5resetER3mpz(ptr noundef nonnull align 8 dereferenceable(728) %8, ptr noundef nonnull align 8 dereferenceable(32) %7)
  %9 = getelementptr inbounds nuw i8, ptr %0, i64 24
  tail call void @_ZN11mpz_managerILb1EE3delEPS0_R3mpz(ptr noundef nonnull align 8 dereferenceable(728) %8, ptr noundef nonnull align 8 dereferenceable(16) %9)
  store i32 1, ptr %9, align 8, !tbaa !16
  %10 = getelementptr inbounds nuw i8, ptr %0, i64 28
  %11 = load i8, ptr %10, align 4
  %12 = and i8 %11, -2
  store i8 %12, ptr %10, align 4
  br label %25

13:                                               ; preds = %4
  %14 = getelementptr inbounds nuw i8, ptr %1, i64 8
  %15 = getelementptr inbounds nuw i8, ptr %0, i64 8
  %16 = load ptr, ptr @_ZN8rational13g_mpq_managerE, align 8, !tbaa !14
  tail call void @_ZN11mpq_managerILb1EE3addERK3mpqS3_RS1_(ptr noundef nonnull align 8 dereferenceable(728) %16, ptr noundef nonnull align 8 dereferenceable(32) %15, ptr noundef nonnull align 8 dereferenceable(32) %14, ptr noundef nonnull align 8 dereferenceable(32) %15)
  br label %25

17:                                               ; preds = %4
  store i32 2, ptr %0, align 8, !tbaa !3
  %18 = getelementptr inbounds nuw i8, ptr %0, i64 8
  %19 = load ptr, ptr @_ZN8rational13g_mpq_managerE, align 8, !tbaa !14
  tail call void @_ZN11mpz_managerILb1EE5resetER3mpz(ptr noundef nonnull align 8 dereferenceable(728) %19, ptr noundef nonnull align 8 dereferenceable(32) %18)
  %20 = getelementptr inbounds nuw i8, ptr %0, i64 24
  tail call void @_ZN11mpz_managerILb1EE3delEPS0_R3mpz(ptr noundef nonnull align 8 dereferenceable(728) %19, ptr noundef nonnull align 8 dereferenceable(16) %20)
  store i32 1, ptr %20, align 8, !tbaa !16
  %21 = getelementptr inbounds nuw i8, ptr %0, i64 28
  %22 = load i8, ptr %21, align 4
  %23 = and i8 %22, -2
  store i8 %23, ptr %21, align 4
  br label %25

24:                                               ; preds = %4
  tail call void @_Z26notify_assertion_violationPKciS0_(ptr noundef nonnull @.str, i32 noundef 48, ptr noundef nonnull @.str.1)
  tail call void @_Z18invoke_exit_actionj(i32 noundef 114)
  br label %25

25:                                               ; preds = %2, %24, %17, %13, %6
  ret ptr %0
}